target datalayout = "e-m:e-p270:32:32-p271:32:32-p272:64:64-i64:64-i128:128-f80:128-n8:16:32:64-S128"
target triple = "x86_64-pc-linux-gnu"

%struct.date_mode = type { i32, i32, ptr }
%struct.string_list = type { ptr, i64, i64, i8, ptr }
%struct.shortlog = type { %struct.string_list, i32, i32, i32, i32, i32, i32, i32, i32, %struct.date_mode, i32, %struct.string_list, %struct.string_list, i32, %struct.string_list, ptr }

@.str.2 = private unnamed_addr constant [10 x i8] c"%aN <%aE>\00", align 1
@.str.3 = private unnamed_addr constant [4 x i8] c"%aN\00", align 1
@.str.4 = private unnamed_addr constant [10 x i8] c"%cN <%cE>\00", align 1
@.str.5 = private unnamed_addr constant [4 x i8] c"%cN\00", align 1

; Function Attrs: nounwind uwtable
define dso_local void @shortlog_finish_setup(ptr noundef %0) #0 {
  %2 = alloca ptr, align 8
  store ptr %0, ptr %2, align 8, !tbaa !4
  %3 = load ptr, ptr %2, align 8, !tbaa !4
  %4 = getelementptr inbounds nuw %struct.shortlog, ptr %3, i32 0, i32 10
  %5 = load i32, ptr %4, align 8, !tbaa !61
  %6 = and i32 %5, 1
  %7 = icmp ne i32 %6, 0
  br i1 %7, label %8, label %17

8:                                                ; preds = %1
  %9 = load ptr, ptr %2, align 8, !tbaa !4
  %10 = getelementptr inbounds nuw %struct.shortlog, ptr %9, i32 0, i32 12
  %11 = load ptr, ptr %2, align 8, !tbaa !4
  %12 = getelementptr inbounds nuw %struct.shortlog, ptr %11, i32 0, i32 13
  %13 = load i32, ptr %12, align 8, !tbaa !62
  %14 = icmp ne i32 %13, 0
  %15 = select i1 %14, ptr @.str.2, ptr @.str.3
  %16 = call ptr @string_list_append(ptr noundef %10, ptr noundef %15)
  br label %17

17:                                               ; preds = %8, %1
  %18 = load ptr, ptr %2, align 8, !tbaa !4
  %19 = getelementptr inbounds nuw %struct.shortlog, ptr %18, i32 0, i32 10
  %20 = load i32, ptr %19, align 8, !tbaa !61
  %21 = and i32 %20, 2
  %22 = icmp ne i32 %21, 0
  br i1 %22, label %23, label %32

23:                                               ; preds = %17
  %24 = load ptr, ptr %2, align 8, !tbaa !4
  %25 = getelementptr inbounds nuw %struct.shortlog, ptr %24, i32 0, i32 12
  %26 = load ptr, ptr %2, align 8, !tbaa !4
  %27 = getelementptr inbounds nuw %struct.shortlog, ptr %26, i32 0, i32 13
  %28 = load i32, ptr %27, align 8, !tbaa !62
  %29 = icmp ne i32 %28, 0
  %30 = select i1 %29, ptr @.str.4, ptr @.str.5
  %31 = call ptr @string_list_append(ptr noundef %25, ptr noundef %30)
  br label %32

32:                                               ; preds = %23, %17
  %33 = load ptr, ptr %2, align 8, !tbaa !4
  %34 = getelementptr inbounds nuw %struct.shortlog, ptr %33, i32 0, i32 11
  call void @string_list_sort(ptr noundef %34)
  ret void
}