; Function Attrs: nounwind uwtable
define dso_local void @shortlog_finish_setup(ptr noundef %0) local_unnamed_addr #0 {
  %2 = getelementptr inbounds nuw i8, ptr %0, i64 88
  %3 = load i32, ptr %2, align 8, !tbaa !48
  %4 = and i32 %3, 1
  %.not = icmp eq i32 %4, 0
  br i1 %.not, label %11, label %5

5:                                                ; preds = %1
  %6 = getelementptr inbounds nuw i8, ptr %0, i64 136
  %7 = getelementptr inbounds nuw i8, ptr %0, i64 176
  %8 = load i32, ptr %7, align 8, !tbaa !53
  %.not7 = icmp eq i32 %8, 0
  %9 = select i1 %.not7, ptr @.str.3, ptr @.str.2
  %10 = tail call ptr @string_list_append(ptr noundef nonnull %6, ptr noundef nonnull %9) #17
  %.pre = load i32, ptr %2, align 8, !tbaa !48
  br label %11

11:                                               ; preds = %5, %1
  %12 = phi i32 [ %.pre, %5 ], [ %3, %1 ]
  %13 = and i32 %12, 2
  %.not8 = icmp eq i32 %13, 0
  br i1 %.not8, label %20, label %14

14:                                               ; preds = %11
  %15 = getelementptr inbounds nuw i8, ptr %0, i64 136
  %16 = getelementptr inbounds nuw i8, ptr %0, i64 176
  %17 = load i32, ptr %16, align 8, !tbaa !53
  %.not9 = icmp eq i32 %17, 0
  %18 = select i1 %.not9, ptr @.str.5, ptr @.str.4
  %19 = tail call ptr @string_list_append(ptr noundef nonnull %15, ptr noundef nonnull %18) #17
  br label %20

20:                                               ; preds = %14, %11
  %21 = getelementptr inbounds nuw i8, ptr %0, i64 96
  tail call void @string_list_sort(ptr noundef nonnull %21) #17
  ret void
}